target datalayout = "e-m:e-p270:32:32-p271:32:32-p272:64:64-i64:64-i128:128-f80:128-n8:16:32:64-S128"
target triple = "x86_64-pc-linux-gnu"

%struct.opsi_attribute_handle_t = type { i16, ptr, ptr, ptr, ptr }

; Function Attrs: null_pointer_is_valid sspstrong uwtable
define internal i32 @get_opsi_attribute_index(ptr noundef %0, i32 noundef %1, i32 noundef %2, i32 noundef %3) #0 {
  %5 = alloca i32, align 4
  %6 = alloca ptr, align 8
  %7 = alloca i32, align 4
  %8 = alloca i32, align 4
  %9 = alloca i32, align 4
  %10 = alloca i32, align 4
  %11 = alloca i32, align 4
  %12 = alloca i32, align 4
  %13 = alloca i32, align 4
  store ptr %0, ptr %6, align 8
  store i32 %1, ptr %7, align 4
  store i32 %2, ptr %8, align 4
  store i32 %3, ptr %9, align 4
  call void @llvm.lifetime.start.p0(i64 4, ptr %10) #3
  call void @llvm.lifetime.start.p0(i64 4, ptr %11) #3
  %14 = load i32, ptr %7, align 4
  %15 = load i32, ptr %8, align 4
  %16 = add i32 %14, %15
  %17 = sdiv i32 %16, 2
  store i32 %17, ptr %10, align 4
  %18 = load i32, ptr %10, align 4
  %19 = sext i32 %18 to i64
  %20 = getelementptr [53 x %struct.opsi_attribute_handle_t], ptr @opsi_attributes, i64 0, i64 %19
  %21 = getelementptr inbounds nuw %struct.opsi_attribute_handle_t, ptr %20, i32 0, i32 0
  %22 = load i16, ptr %21, align 8
  %23 = zext i16 %22 to i32
  store i32 %23, ptr %11, align 4
  %24 = load i32, ptr %11, align 4
  %25 = load i32, ptr %9, align 4
  %26 = icmp eq i32 %24, %25
  br i1 %26, label %27, label %29

27:                                               ; preds = %4
  %28 = load i32, ptr %10, align 4
  store i32 %28, ptr %5, align 4
  store i32 1, ptr %12, align 4
  br label %65

29:                                               ; preds = %4
  call void @llvm.lifetime.start.p0(i64 4, ptr %13) #3
  %30 = load ptr, ptr %6, align 8
  call void @increment_dissection_depth(ptr noundef %30)
  %31 = load i32, ptr %9, align 4
  %32 = load i32, ptr %11, align 4
  %33 = icmp sgt i32 %31, %32
  br i1 %33, label %34, label %48

34:                                               ; preds = %29
  %35 = load i32, ptr %10, align 4
  %36 = load i32, ptr %8, align 4
  %37 = icmp eq i32 %35, %36
  br i1 %37, label %38, label %39

38:                                               ; preds = %34
  br label %46

39:                                               ; preds = %34
  %40 = load ptr, ptr %6, align 8
  %41 = load i32, ptr %10, align 4
  %42 = add i32 %41, 1
  %43 = load i32, ptr %8, align 4
  %44 = load i32, ptr %9, align 4
  %45 = call i32 @get_opsi_attribute_index(ptr noundef %40, i32 noundef %42, i32 noundef %43, i32 noundef %44)
  br label %46

46:                                               ; preds = %39, %38
  %47 = phi i32 [ -1, %38 ], [ %45, %39 ]
  store i32 %47, ptr %13, align 4
  br label %62

48:                                               ; preds = %29
  %49 = load i32, ptr %10, align 4
  %50 = load i32, ptr %7, align 4
  %51 = icmp eq i32 %49, %50
  br i1 %51, label %52, label %53

52:                                               ; preds = %48
  br label %60

53:                                               ; preds = %48
  %54 = load ptr, ptr %6, align 8
  %55 = load i32, ptr %7, align 4
  %56 = load i32, ptr %10, align 4
  %57 = sub i32 %56, 1
  %58 = load i32, ptr %9, align 4
  %59 = call i32 @get_opsi_attribute_index(ptr noundef %54, i32 noundef %55, i32 noundef %57, i32 noundef %58)
  br label %60

60:                                               ; preds = %53, %52
  %61 = phi i32 [ -1, %52 ], [ %59, %53 ]
  store i32 %61, ptr %13, align 4
  br label %62

62:                                               ; preds = %60, %46
  %63 = load ptr, ptr %6, align 8
  call void @decrement_dissection_depth(ptr noundef %63)
  %64 = load i32, ptr %13, align 4
  store i32 %64, ptr %5, align 4
  store i32 1, ptr %12, align 4
  call void @llvm.lifetime.end.p0(i64 4, ptr %13) #3
  br label %65

65:                                               ; preds = %62, %27
  call void @llvm.lifetime.end.p0(i64 4, ptr %11) #3
  call void @llvm.lifetime.end.p0(i64 4, ptr %10) #3
  %66 = load i32, ptr %5, align 4
  ret i32 %66
}