; Function Attrs: null_pointer_is_valid sspstrong uwtable
define internal fastcc range(i32 -1, 53) i32 @get_opsi_attribute_index(ptr noundef %0, i32 noundef range(i32 0, 54) %1, i32 noundef range(i32 -1, 53) %2, i32 noundef range(i32 0, 65536) %3) unnamed_addr #0 {
  %5 = add nsw i32 %2, %1
  %.lhs.trunc = trunc nsw i32 %5 to i8
  %6 = sdiv i8 %.lhs.trunc, 2
  %.sext = zext nneg i8 %6 to i32
  %7 = zext nneg i8 %6 to i64
  %8 = getelementptr [53 x %struct.opsi_attribute_handle_t], ptr @opsi_attributes, i64 0, i64 %7
  %9 = load i16, ptr %8, align 8
  %10 = zext i16 %9 to i32
  %11 = icmp eq i32 %3, %10
  br i1 %11, label %25, label %12

12:                                               ; preds = %4
  tail call void @increment_dissection_depth(ptr noundef %0)
  %13 = icmp samesign ugt i32 %3, %10
  br i1 %13, label %14, label %19

14:                                               ; preds = %12
  %15 = icmp eq i32 %2, %.sext
  br i1 %15, label %24, label %16

16:                                               ; preds = %14
  %17 = add nuw nsw i32 %.sext, 1
  %18 = tail call fastcc i32 @get_opsi_attribute_index(ptr noundef %0, i32 noundef %17, i32 noundef %2, i32 noundef %3)
  br label %24

19:                                               ; preds = %12
  %20 = icmp eq i32 %1, %.sext
  br i1 %20, label %24, label %21

21:                                               ; preds = %19
  %22 = add nsw i32 %.sext, -1
  %23 = tail call fastcc i32 @get_opsi_attribute_index(ptr noundef %0, i32 noundef %1, i32 noundef %22, i32 noundef %3)
  br label %24

24:                                               ; preds = %21, %19, %16, %14
  %.0 = phi i32 [ %18, %16 ], [ -1, %14 ], [ %23, %21 ], [ -1, %19 ]
  tail call void @decrement_dissection_depth(ptr noundef %0)
  br label %25

25:                                               ; preds = %4, %24
  %.023 = phi i32 [ %.0, %24 ], [ %.sext, %4 ]
  ret i32 %.023
}